; Function Attrs: mustprogress nofree nounwind willreturn memory(read) uwtable
define hidden noundef ptr @_ZN5boost3log11v2_mt_posix3aux14char_constantsIcE16trim_spaces_leftEPKcS6_(ptr noundef readonly %0, ptr noundef readnone %1) local_unnamed_addr #3 align 2 {
  %.not6 = icmp eq ptr %0, %1
  br i1 %.not6, label %.critedge, label %.lr.ph.preheader

.lr.ph.preheader:                                 ; preds = %2
  %3 = ptrtoint ptr %1 to i64
  %4 = ptrtoint ptr %0 to i64
  %5 = sub i64 %3, %4
  %scevgep = getelementptr i8, ptr %0, i64 %5
  br label %.lr.ph

.lr.ph:                                           ; preds = %.lr.ph.preheader, %9
  %.07 = phi ptr [ %10, %9 ], [ %0, %.lr.ph.preheader ]
  %6 = load i8, ptr %.07, align 1, !tbaa !3
  %7 = sext i8 %6 to i32
  %8 = tail call i32 @isspace(i32 noundef %7) #9
  %.not5 = icmp eq i32 %8, 0
  br i1 %.not5, label %.critedge, label %9

9:                                                ; preds = %.lr.ph
  %10 = getelementptr inbounds nuw i8, ptr %.07, i64 1
  %.not = icmp eq ptr %10, %1
  br i1 %.not, label %.critedge, label %.lr.ph, !llvm.loop !6

.critedge:                                        ; preds = %.lr.ph, %9, %2
  %.0.lcssa = phi ptr [ %0, %2 ], [ %scevgep, %9 ], [ %.07, %.lr.ph ]
  ret ptr %.0.lcssa
}